; Function Attrs: mustprogress nofree norecurse nosync nounwind sspstrong willreturn memory(argmem: write) uwtable
define internal noundef zeroext i1 @cmd_cfa_erase_sectors(ptr noundef writeonly captures(none) %s, i8 noundef zeroext %cmd) #9 {
entry:
  switch i8 %cmd, label %if.end6 [
    i8 -11, label %if.then
    i8 -64, label %if.then5
  ]

if.then:                                          ; preds = %entry
  %nsector = getelementptr inbounds nuw i8, ptr %s, i64 652
  store i32 0, ptr %nsector, align 4
  br label %if.end6

if.then5:                                         ; preds = %entry
  %media_changed = getelementptr inbounds nuw i8, ptr %s, i64 944
  store i32 1, ptr %media_changed, align 8
  br label %if.end6

if.end6:                                          ; preds = %if.then, %entry, %if.then5
  ret i1 true
}